Certificate:
    Data:
        Version: 1 (0x0)
        Serial Number: 1 (0x1)
    Signature Algorithm: sha256WithRSAEncryption
        Issuer: C=FR, O=Celticom/emailAddress=nicolas.martyanoff@celticom.com
        Validity
            Not Before: Feb 13 15:12:13 2015 GMT
            Not After : Feb 10 15:12:13 2025 GMT
        Subject: C=FR, O=Celticom, CN=localhost
        Subject Public Key Info:
            Public Key Algorithm: rsaEncryption
                Public-Key: (2048 bit)
                Modulus:
                    00:9d:21:dc:14:76:ba:88:7d:53:95:03:9f:88:9e:
                    98:15:e6:7e:56:17:87:b2:34:2f:cd:38:2f:a8:76:
                    b0:d7:7a:04:c9:ff:8a:41:ee:80:ed:c2:f0:51:b7:
                    75:f3:f0:88:a2:45:07:70:c7:67:1f:13:f8:a9:39:
                    6c:94:f9:78:60:70:81:c0:ae:34:44:a6:10:f6:0a:
                    2c:f0:46:c7:f1:3e:88:a3:59:ff:5d:58:fd:a5:57:
                    83:cf:af:b0:f6:c7:a2:e9:a1:68:10:71:ee:da:1f:
                    5b:c8:2a:53:71:1b:7e:79:e2:88:8b:e8:0f:8b:ad:
                    b5:33:37:25:a6:11:91:1d:ee:14:1f:7a:10:00:18:
                    75:dc:a2:e5:ec:e2:04:69:b8:6d:f7:9e:03:84:fb:
                    d3:c8:53:82:23:5c:71:64:50:e1:a7:13:0f:37:4c:
                    19:8d:c9:e1:6c:58:59:ca:a7:d5:2d:1d:c9:0b:b5:
                    b2:15:e7:02:62:7c:68:78:f3:da:b5:f2:0a:64:61:
                    71:a3:11:6b:a5:ca:f1:0e:3e:2d:ea:e4:07:34:92:
                    b5:1b:d9:13:10:54:d6:79:3d:8d:05:07:ec:1e:af:
                    4b:8e:a9:17:9b:4e:32:64:eb:aa:01:79:65:2c:b1:
                    4c:e4:dd:fc:6e:4b:21:54:7f:56:e8:41:f4:28:dc:
                    b7:ad
                Exponent: 65537 (0x10001)
    Signature Algorithm: sha256WithRSAEncryption
         3d:72:0b:e2:a3:1b:de:55:9f:a1:13:c6:d7:d7:23:5f:0d:80:
         c9:d0:1a:d1:b4:26:1b:c8:d3:ad:d4:9e:ce:60:d5:43:80:94:
         92:5a:75:30:7c:1b:44:df:81:1b:95:89:89:ae:7a:8e:24:c4:
         29:68:96:5f:65:e1:89:30:12:61:b1:19:b8:e4:79:9d:a3:85:
         c2:f4:3d:f7:1a:1a:51:0e:d4:39:0b:8e:34:2f:88:4d:7c:b1:
         d3:0c:a4:72:77:51:c1:60:30:3a:3d:17:76:d7:87:5e:28:be:
         55:e7:6e:52:dd:50:10:1c:69:4b:ee:98:92:7d:7e:d6:45:d6:
         5d:37:e5:49:69:0c:68:6a:5e:1e:b3:18:85:cd:67:94:b6:0b:
         88:9e:fe:a5:ee:39:e1:06:83:81:37:86:21:98:10:aa:4c:c8:
         8e:65:20:03:db:69:68:90:25:64:d1:ae:e2:cb:47:cf:98:52:
         65:7b:f6:24:fb:c7:b8:c4:e2:15:5c:c3:22:53:54:05:8e:46:
         dd:f0:d0:e1:5b:e9:8d:6a:8d:da:4b:10:41:63:75:79:8c:35:
         bd:d0:4d:c5:a1:db:93:e7:99:2e:48:c5:06:d0:e1:3c:e7:95:
         fd:1e:09:13:df:c6:30:0c:14:66:a2:b4:d9:c8:97:c5:8d:27:
         d3:b4:f4:e4
-----BEGIN CERTIFICATE-----
MIIC+DCCAeACAQEwDQYJKoZIhvcNAQELBQAwUDELMAkGA1UEBhMCRlIxETAPBgNV
BAoMCENlbHRpY29tMS4wLAYJKoZIhvcNAQkBFh9uaWNvbGFzLm1hcnR5YW5vZmZA
Y2VsdGljb20uY29tMB4XDTE1MDIxMzE1MTIxM1oXDTI1MDIxMDE1MTIxM1owNDEL
MAkGA1UEBhMCRlIxETAPBgNVBAoMCENlbHRpY29tMRIwEAYDVQQDDAlsb2NhbGhv
c3QwggEiMA0GCSqGSIb3DQEBAQUAA4IBDwAwggEKAoIBAQCdIdwUdrqIfVOVA5+I
npgV5n5WF4eyNC/NOC+odrDXegTJ/4pB7oDtwvBRt3Xz8IiiRQdwx2cfE/ipOWyU
+XhgcIHArjREphD2CizwRsfxPoijWf9dWP2lV4PPr7D2x6LpoWgQce7aH1vIKlNx
G3554oiL6A+LrbUzNyWmEZEd7hQfehAAGHXcouXs4gRpuG33ngOE+9PIU4IjXHFk
UOGnEw83TBmNyeFsWFnKp9UtHckLtbIV5wJifGh489q18gpkYXGjEWulyvEOPi3q
5Ac0krUb2RMQVNZ5PY0FB+wer0uOqRebTjJk66oBeWUssUzk3fxuSyFUf1boQfQo
3LetAgMBAAEwDQYJKoZIhvcNAQELBQADggEBAD1yC+KjG95Vn6ETxtfXI18NgMnQ
GtG0JhvI063Uns5g1UOAlJJadTB8G0TfgRuViYmueo4kxCloll9l4YkwEmGxGbjk
eZ2jhcL0PfcaGlEO1DkLjjQviE18sdMMpHJ3UcFgMDo9F3bXh14ovlXnblLdUBAc
aUvumJJ9ftZF1l035UlpDGhqXh6zGIXNZ5S2C4ie/qXuOeEGg4E3hiGYEKpMyI5l
IAPbaWiQJWTRruLLR8+YUmV79iT7x7jE4hVcwyJTVAWORt3w0OFb6Y1qjdpLEEFj
dXmMNb3QTcWh25PnmS5IxQbQ4Tznlf0eCRPfxjAMFGaitNnIl8WNJ9O09OQ=
-----END CERTIFICATE-----
